cnumpy.core.multiarray
_reconstruct
p0
(cnumpy
ndarray
p1
(I0
tp2
S'b'
p3
tp4
Rp5
(I1
(I7
tp6
cnumpy
dtype
p7
(S'f4'
p8
I0
I1
tp9
Rp10
(I3
S'<'
p11
NNNI-1
I-1
I0
tp12
bI00
S'\x07\xd2jB|\x82\x8dBc\xa1\x90\xc2j\x18\xa0BfW\x16C\x9c\x16\x95\xc1cA+\xc1'
p13
tp14
b.